Certificate:
    Data:
        Version: 3 (0x2)
        Serial Number: 1 (0x1)
        Signature Algorithm: sha256WithRSAEncryption
        Issuer: CN=devcert
        Validity
            Not Before: Nov  3 17:28:18 2021 GMT
            Not After : Feb  6 17:28:18 2024 GMT
        Subject: CN=localhost
        Subject Public Key Info:
            Public Key Algorithm: rsaEncryption
                RSA Public-Key: (2048 bit)
                Modulus:
                    00:d8:ed:26:e2:c1:93:55:dc:f9:ef:2b:4d:a9:5e:
                    42:f8:1e:34:85:4d:3e:5b:aa:4d:25:53:73:3c:c6:
                    24:fe:b2:c9:a4:05:a4:c2:7d:4f:9f:0f:9e:e6:92:
                    a4:11:38:3a:7e:99:ef:cb:16:b5:9a:c7:6d:f4:f0:
                    49:79:a5:29:bb:73:07:15:10:86:f4:cc:30:97:a4:
                    5e:76:33:25:bc:5c:a5:70:09:43:a9:bc:48:12:1c:
                    28:5a:ad:81:86:f2:92:c6:1a:fd:29:8b:0c:ce:86:
                    0b:3f:88:95:fa:24:a4:5a:ce:dc:32:7e:e5:5a:d8:
                    42:04:99:2e:a6:0f:09:a3:ac:e1:25:76:3d:e3:13:
                    31:1a:82:58:d0:ea:ad:fd:18:3b:5a:2e:18:23:4d:
                    6d:d3:65:af:b3:84:34:48:0f:cf:c9:cb:23:62:c5:
                    9c:cf:09:c1:07:81:37:d7:12:90:f6:47:ba:54:98:
                    64:91:fe:83:c6:72:02:32:1d:b1:06:53:5a:19:99:
                    e2:70:84:2f:c7:35:ff:14:25:68:8d:c5:46:1a:d8:
                    f2:81:34:03:a5:d0:69:0d:74:15:b1:1a:bd:47:5b:
                    f0:1d:3e:b7:93:5a:c8:f5:69:73:66:e2:0a:54:2a:
                    22:20:bc:bf:ec:38:e4:3d:ca:5c:1c:e8:23:56:02:
                    cb:d5
                Exponent: 65537 (0x10001)
        X509v3 extensions:
            X509v3 Basic Constraints: critical
                CA:FALSE
            X509v3 Subject Key Identifier: 
                B7:E8:5F:90:37:64:6F:0C:B6:46:70:A3:0A:72:14:A6:2B:F0:DA:EF
            X509v3 Authority Key Identifier: 
                keyid:12:5C:91:9A:9E:C0:D5:1E:30:98:0A:C7:0A:FF:6C:FE:63:F8:95:A6
                DirName:/CN=devcert
                serial:4C:2E:55:75:82:FF:49:2E:27:EE:C6:5D:5D:09:14:60:D0:89:7E:3C

            X509v3 Key Usage: critical
                Digital Signature, Key Encipherment
            X509v3 Extended Key Usage: 
                TLS Web Server Authentication
            X509v3 Subject Alternative Name: 
                DNS:localhost, DNS:*.localhost
    Signature Algorithm: sha256WithRSAEncryption
         6e:46:1c:d1:b6:57:49:7a:07:3a:b0:9a:d5:64:7c:06:18:62:
         a8:7a:b3:0c:f1:e0:40:a9:c5:b2:77:7b:ce:bc:16:3f:81:f5:
         69:d5:d8:08:8f:8a:17:0b:78:81:aa:b6:bc:a1:19:f2:dc:28:
         79:8e:68:07:6f:e4:61:67:53:25:27:35:fc:82:bb:22:31:f8:
         ca:d8:5f:c9:db:0e:9b:a3:15:83:32:3b:22:ac:f0:95:17:1f:
         b2:e1:5a:52:de:f3:b7:d7:e1:71:f1:31:b6:1c:b3:39:18:82:
         a4:ff:e5:53:dd:5b:8d:4f:e3:dc:89:be:9a:51:34:f8:4e:29:
         67:7f:6f:82:78:e5:ab:6c:fa:40:aa:39:21:0a:9a:92:5e:28:
         1e:48:d8:5d:b0:ac:e8:06:ec:80:a8:d7:3f:5a:36:27:7a:39:
         94:05:71:72:62:44:14:81:07:1e:41:8d:86:bf:7b:ee:d8:ee:
         16:8d:68:aa:af:06:34:97:f5:59:b5:cf:3b:75:e8:82:f6:69:
         22:48:4b:56:c7:5a:78:59:d4:cb:fe:55:13:bf:32:0e:12:83:
         76:e5:68:eb:a1:66:b0:23:ad:cf:ac:c9:dd:39:7a:04:0d:aa:
         4d:dd:f2:96:be:21:5e:f0:72:41:51:05:f7:e5:a6:0d:d8:2b:
         25:52:a2:e8
-----BEGIN CERTIFICATE-----
MIIDaTCCAlGgAwIBAgIBATANBgkqhkiG9w0BAQsFADASMRAwDgYDVQQDDAdkZXZj
ZXJ0MB4XDTIxMTEwMzE3MjgxOFoXDTI0MDIwNjE3MjgxOFowFDESMBAGA1UEAwwJ
bG9jYWxob3N0MIIBIjANBgkqhkiG9w0BAQEFAAOCAQ8AMIIBCgKCAQEA2O0m4sGT
Vdz57ytNqV5C+B40hU0+W6pNJVNzPMYk/rLJpAWkwn1Pnw+e5pKkETg6fpnvyxa1
msdt9PBJeaUpu3MHFRCG9Mwwl6RedjMlvFylcAlDqbxIEhwoWq2BhvKSxhr9KYsM
zoYLP4iV+iSkWs7cMn7lWthCBJkupg8Jo6zhJXY94xMxGoJY0Oqt/Rg7Wi4YI01t
02Wvs4Q0SA/PycsjYsWczwnBB4E31xKQ9ke6VJhkkf6DxnICMh2xBlNaGZnicIQv
xzX/FCVojcVGGtjygTQDpdBpDXQVsRq9R1vwHT63k1rI9WlzZuIKVCoiILy/7Djk
PcpcHOgjVgLL1QIDAQABo4HHMIHEMAwGA1UdEwEB/wQCMAAwHQYDVR0OBBYEFLfo
X5A3ZG8MtkZwowpyFKYr8NrvME0GA1UdIwRGMESAFBJckZqewNUeMJgKxwr/bP5j
+JWmoRakFDASMRAwDgYDVQQDDAdkZXZjZXJ0ghRMLlV1gv9JLifuxl1dCRRg0Il+
PDAOBgNVHQ8BAf8EBAMCBaAwEwYDVR0lBAwwCgYIKwYBBQUHAwEwIQYDVR0RBBow
GIIJbG9jYWxob3N0ggsqLmxvY2FsaG9zdDANBgkqhkiG9w0BAQsFAAOCAQEAbkYc
0bZXSXoHOrCa1WR8BhhiqHqzDPHgQKnFsnd7zrwWP4H1adXYCI+KFwt4gaq2vKEZ
8twoeY5oB2/kYWdTJSc1/IK7IjH4ythfydsOm6MVgzI7IqzwlRcfsuFaUt7zt9fh
cfExthyzORiCpP/lU91bjU/j3Im+mlE0+E4pZ39vgnjlq2z6QKo5IQqakl4oHkjY
XbCs6AbsgKjXP1o2J3o5lAVxcmJEFIEHHkGNhr977tjuFo1oqq8GNJf1WbXPO3Xo
gvZpIkhLVsdaeFnUy/5VE78yDhKDduVo66FmsCOtz6zJ3Tl6BA2qTd3ylr4hXvBy
QVEF9+WmDdgrJVKi6A==
-----END CERTIFICATE-----
